target datalayout = "e-m:e-p270:32:32-p271:32:32-p272:64:64-i64:64-i128:128-f80:128-n8:16:32:64-S128"
target triple = "x86_64-unknown-linux-gnu"

%"class.std::__cxx11::basic_string" = type { %"struct.std::__cxx11::basic_string<char>::_Alloc_hider", i64, %union.anon }
%"struct.std::__cxx11::basic_string<char>::_Alloc_hider" = type { ptr }
%union.anon = type { i64, [8 x i8] }
%"class.rocksdb::Slice" = type { ptr, i64 }

@_ZN7rocksdb20kPropertiesBlockNameB5cxx11E = external global %"class.std::__cxx11::basic_string", align 8
@_ZN7rocksdb18kRangeDelBlockNameB5cxx11E = external global %"class.std::__cxx11::basic_string", align 8
@_ZN7rocksdb15BlockBasedTable22kFullFilterBlockPrefixB5cxx11E = external global %"class.std::__cxx11::basic_string", align 8
@_ZN7rocksdb15BlockBasedTable29kPartitionedFilterBlockPrefixB5cxx11E = external global %"class.std::__cxx11::basic_string", align 8
@_ZN7rocksdb15BlockBasedTable26kObsoleteFilterBlockPrefixB5cxx11E = external global %"class.std::__cxx11::basic_string", align 8
@_ZN7rocksdb25kCompressionDictBlockNameB5cxx11E = external global %"class.std::__cxx11::basic_string", align 8
@_ZN7rocksdb23kHashIndexPrefixesBlockB5cxx11E = external global %"class.std::__cxx11::basic_string", align 8
@_ZN7rocksdb31kHashIndexPrefixesMetadataBlockB5cxx11E = external global %"class.std::__cxx11::basic_string", align 8
@_ZN7rocksdb15kIndexBlockNameB5cxx11E = external global %"class.std::__cxx11::basic_string", align 8

; Function Attrs: mustprogress nounwind uwtable
define linkonce_odr noundef ptr @_ZNK7rocksdb5Slice4dataEv(ptr noundef nonnull align 8 dereferenceable(16) %this) #1 comdat align 2 {
entry:
  %this.addr = alloca ptr, align 8
  store ptr %this, ptr %this.addr, align 8
  %this1 = load ptr, ptr %this.addr, align 8
  %data_ = getelementptr inbounds %"class.rocksdb::Slice", ptr %this1, i32 0, i32 0
  %0 = load ptr, ptr %data_, align 8
  ret ptr %0
}

; Function Attrs: mustprogress nounwind uwtable
define linkonce_odr noundef i64 @_ZNK7rocksdb5Slice4sizeEv(ptr noundef nonnull align 8 dereferenceable(16) %this) #1 comdat align 2 {
entry:
  %this.addr = alloca ptr, align 8
  store ptr %this, ptr %this.addr, align 8
  %this1 = load ptr, ptr %this.addr, align 8
  %size_ = getelementptr inbounds %"class.rocksdb::Slice", ptr %this1, i32 0, i32 1
  %0 = load i64, ptr %size_, align 8
  ret i64 %0
}

; Function Attrs: mustprogress nounwind uwtable
define linkonce_odr noundef zeroext i1 @_ZN7rocksdbeqERKNS_5SliceES2_(ptr noundef nonnull align 8 dereferenceable(16) %x, ptr noundef nonnull align 8 dereferenceable(16) %y) #1 comdat {
entry:
  %x.addr = alloca ptr, align 8
  %y.addr = alloca ptr, align 8
  store ptr %x, ptr %x.addr, align 8
  store ptr %y, ptr %y.addr, align 8
  %0 = load ptr, ptr %x.addr, align 8
  %call = call noundef i64 @_ZNK7rocksdb5Slice4sizeEv(ptr noundef nonnull align 8 dereferenceable(16) %0)
  %1 = load ptr, ptr %y.addr, align 8
  %call1 = call noundef i64 @_ZNK7rocksdb5Slice4sizeEv(ptr noundef nonnull align 8 dereferenceable(16) %1)
  %cmp = icmp eq i64 %call, %call1
  br i1 %cmp, label %land.rhs, label %land.end

land.rhs:                                         ; preds = %entry
  %2 = load ptr, ptr %x.addr, align 8
  %call2 = call noundef ptr @_ZNK7rocksdb5Slice4dataEv(ptr noundef nonnull align 8 dereferenceable(16) %2)
  %3 = load ptr, ptr %y.addr, align 8
  %call3 = call noundef ptr @_ZNK7rocksdb5Slice4dataEv(ptr noundef nonnull align 8 dereferenceable(16) %3)
  %4 = load ptr, ptr %x.addr, align 8
  %call4 = call noundef i64 @_ZNK7rocksdb5Slice4sizeEv(ptr noundef nonnull align 8 dereferenceable(16) %4)
  %call5 = call i32 @memcmp(ptr noundef %call2, ptr noundef %call3, i64 noundef %call4) #22
  %cmp6 = icmp eq i32 %call5, 0
  br label %land.end

land.end:                                         ; preds = %land.rhs, %entry
  %5 = phi i1 [ false, %entry ], [ %cmp6, %land.rhs ]
  ret i1 %5
}

; Function Attrs: mustprogress nounwind uwtable
define linkonce_odr noundef zeroext i1 @_ZNK7rocksdb5Slice11starts_withERKS0_(ptr noundef nonnull align 8 dereferenceable(16) %this, ptr noundef nonnull align 8 dereferenceable(16) %x) #1 comdat align 2 {
entry:
  %this.addr = alloca ptr, align 8
  %x.addr = alloca ptr, align 8
  store ptr %this, ptr %this.addr, align 8
  store ptr %x, ptr %x.addr, align 8
  %this1 = load ptr, ptr %this.addr, align 8
  %size_ = getelementptr inbounds %"class.rocksdb::Slice", ptr %this1, i32 0, i32 1
  %0 = load i64, ptr %size_, align 8
  %1 = load ptr, ptr %x.addr, align 8
  %size_2 = getelementptr inbounds %"class.rocksdb::Slice", ptr %1, i32 0, i32 1
  %2 = load i64, ptr %size_2, align 8
  %cmp = icmp uge i64 %0, %2
  br i1 %cmp, label %land.rhs, label %land.end

land.rhs:                                         ; preds = %entry
  %data_ = getelementptr inbounds %"class.rocksdb::Slice", ptr %this1, i32 0, i32 0
  %3 = load ptr, ptr %data_, align 8
  %4 = load ptr, ptr %x.addr, align 8
  %data_3 = getelementptr inbounds %"class.rocksdb::Slice", ptr %4, i32 0, i32 0
  %5 = load ptr, ptr %data_3, align 8
  %6 = load ptr, ptr %x.addr, align 8
  %size_4 = getelementptr inbounds %"class.rocksdb::Slice", ptr %6, i32 0, i32 1
  %7 = load i64, ptr %size_4, align 8
  %call = call i32 @memcmp(ptr noundef %3, ptr noundef %5, i64 noundef %7) #22
  %cmp5 = icmp eq i32 %call, 0
  br label %land.end

land.end:                                         ; preds = %land.rhs, %entry
  %8 = phi i1 [ false, %entry ], [ %cmp5, %land.rhs ]
  ret i1 %8
}

; Function Attrs: mustprogress nounwind uwtable
define linkonce_odr void @_ZN7rocksdb5SliceC2ERKNSt7__cxx1112basic_stringIcSt11char_traitsIcESaIcEEE(ptr noundef nonnull align 8 dereferenceable(16) %this, ptr noundef nonnull align 8 dereferenceable(32) %s) unnamed_addr #1 comdat align 2 {
entry:
  %this.addr = alloca ptr, align 8
  %s.addr = alloca ptr, align 8
  store ptr %this, ptr %this.addr, align 8
  store ptr %s, ptr %s.addr, align 8
  %this1 = load ptr, ptr %this.addr, align 8
  %data_ = getelementptr inbounds %"class.rocksdb::Slice", ptr %this1, i32 0, i32 0
  %0 = load ptr, ptr %s.addr, align 8
  %call = call noundef ptr @_ZNKSt7__cxx1112basic_stringIcSt11char_traitsIcESaIcEE4dataEv(ptr noundef nonnull align 8 dereferenceable(32) %0) #3
  store ptr %call, ptr %data_, align 8
  %size_ = getelementptr inbounds %"class.rocksdb::Slice", ptr %this1, i32 0, i32 1
  %1 = load ptr, ptr %s.addr, align 8
  %call2 = call noundef i64 @_ZNKSt7__cxx1112basic_stringIcSt11char_traitsIcESaIcEE4sizeEv(ptr noundef nonnull align 8 dereferenceable(32) %1) #3
  store i64 %call2, ptr %size_, align 8
  ret void
}

; Function Attrs: mustprogress uwtable
define noundef zeroext i8 @_ZN7rocksdb15BlockBasedTable30GetBlockTypeForMetaBlockByNameERKNS_5SliceE(ptr noundef nonnull align 8 dereferenceable(16) %meta_block_name) #0 align 2 {
entry:
  %retval = alloca i8, align 1
  %meta_block_name.addr = alloca ptr, align 8
  %ref.tmp = alloca %"class.rocksdb::Slice", align 8
  %ref.tmp1 = alloca %"class.rocksdb::Slice", align 8
  %ref.tmp5 = alloca %"class.rocksdb::Slice", align 8
  %ref.tmp9 = alloca %"class.rocksdb::Slice", align 8
  %ref.tmp13 = alloca %"class.rocksdb::Slice", align 8
  %ref.tmp17 = alloca %"class.rocksdb::Slice", align 8
  %ref.tmp21 = alloca %"class.rocksdb::Slice", align 8
  %ref.tmp25 = alloca %"class.rocksdb::Slice", align 8
  %ref.tmp29 = alloca %"class.rocksdb::Slice", align 8
  store ptr %meta_block_name, ptr %meta_block_name.addr, align 8
  %0 = load ptr, ptr %meta_block_name.addr, align 8
  call void @_ZN7rocksdb5SliceC2ERKNSt7__cxx1112basic_stringIcSt11char_traitsIcESaIcEEE(ptr noundef nonnull align 8 dereferenceable(16) %ref.tmp, ptr noundef nonnull align 8 dereferenceable(32) @_ZN7rocksdb15BlockBasedTable22kFullFilterBlockPrefixB5cxx11E)
  %call = call noundef zeroext i1 @_ZNK7rocksdb5Slice11starts_withERKS0_(ptr noundef nonnull align 8 dereferenceable(16) %0, ptr noundef nonnull align 8 dereferenceable(16) %ref.tmp)
  br i1 %call, label %if.then, label %if.end

if.then:                                          ; preds = %entry
  store i8 1, ptr %retval, align 1
  br label %return

if.end:                                           ; preds = %entry
  %1 = load ptr, ptr %meta_block_name.addr, align 8
  call void @_ZN7rocksdb5SliceC2ERKNSt7__cxx1112basic_stringIcSt11char_traitsIcESaIcEEE(ptr noundef nonnull align 8 dereferenceable(16) %ref.tmp1, ptr noundef nonnull align 8 dereferenceable(32) @_ZN7rocksdb15BlockBasedTable29kPartitionedFilterBlockPrefixB5cxx11E)
  %call2 = call noundef zeroext i1 @_ZNK7rocksdb5Slice11starts_withERKS0_(ptr noundef nonnull align 8 dereferenceable(16) %1, ptr noundef nonnull align 8 dereferenceable(16) %ref.tmp1)
  br i1 %call2, label %if.then3, label %if.end4

if.then3:                                         ; preds = %if.end
  store i8 2, ptr %retval, align 1
  br label %return

if.end4:                                          ; preds = %if.end
  %2 = load ptr, ptr %meta_block_name.addr, align 8
  call void @_ZN7rocksdb5SliceC2ERKNSt7__cxx1112basic_stringIcSt11char_traitsIcESaIcEEE(ptr noundef nonnull align 8 dereferenceable(16) %ref.tmp5, ptr noundef nonnull align 8 dereferenceable(32) @_ZN7rocksdb20kPropertiesBlockNameB5cxx11E)
  %call6 = call noundef zeroext i1 @_ZN7rocksdbeqERKNS_5SliceES2_(ptr noundef nonnull align 8 dereferenceable(16) %2, ptr noundef nonnull align 8 dereferenceable(16) %ref.tmp5)
  br i1 %call6, label %if.then7, label %if.end8

if.then7:                                         ; preds = %if.end4
  store i8 3, ptr %retval, align 1
  br label %return

if.end8:                                          ; preds = %if.end4
  %3 = load ptr, ptr %meta_block_name.addr, align 8
  call void @_ZN7rocksdb5SliceC2ERKNSt7__cxx1112basic_stringIcSt11char_traitsIcESaIcEEE(ptr noundef nonnull align 8 dereferenceable(16) %ref.tmp9, ptr noundef nonnull align 8 dereferenceable(32) @_ZN7rocksdb25kCompressionDictBlockNameB5cxx11E)
  %call10 = call noundef zeroext i1 @_ZN7rocksdbeqERKNS_5SliceES2_(ptr noundef nonnull align 8 dereferenceable(16) %3, ptr noundef nonnull align 8 dereferenceable(16) %ref.tmp9)
  br i1 %call10, label %if.then11, label %if.end12

if.then11:                                        ; preds = %if.end8
  store i8 4, ptr %retval, align 1
  br label %return

if.end12:                                         ; preds = %if.end8
  %4 = load ptr, ptr %meta_block_name.addr, align 8
  call void @_ZN7rocksdb5SliceC2ERKNSt7__cxx1112basic_stringIcSt11char_traitsIcESaIcEEE(ptr noundef nonnull align 8 dereferenceable(16) %ref.tmp13, ptr noundef nonnull align 8 dereferenceable(32) @_ZN7rocksdb18kRangeDelBlockNameB5cxx11E)
  %call14 = call noundef zeroext i1 @_ZN7rocksdbeqERKNS_5SliceES2_(ptr noundef nonnull align 8 dereferenceable(16) %4, ptr noundef nonnull align 8 dereferenceable(16) %ref.tmp13)
  br i1 %call14, label %if.then15, label %if.end16

if.then15:                                        ; preds = %if.end12
  store i8 5, ptr %retval, align 1
  br label %return

if.end16:                                         ; preds = %if.end12
  %5 = load ptr, ptr %meta_block_name.addr, align 8
  call void @_ZN7rocksdb5SliceC2ERKNSt7__cxx1112basic_stringIcSt11char_traitsIcESaIcEEE(ptr noundef nonnull align 8 dereferenceable(16) %ref.tmp17, ptr noundef nonnull align 8 dereferenceable(32) @_ZN7rocksdb23kHashIndexPrefixesBlockB5cxx11E)
  %call18 = call noundef zeroext i1 @_ZN7rocksdbeqERKNS_5SliceES2_(ptr noundef nonnull align 8 dereferenceable(16) %5, ptr noundef nonnull align 8 dereferenceable(16) %ref.tmp17)
  br i1 %call18, label %if.then19, label %if.end20

if.then19:                                        ; preds = %if.end16
  store i8 6, ptr %retval, align 1
  br label %return

if.end20:                                         ; preds = %if.end16
  %6 = load ptr, ptr %meta_block_name.addr, align 8
  call void @_ZN7rocksdb5SliceC2ERKNSt7__cxx1112basic_stringIcSt11char_traitsIcESaIcEEE(ptr noundef nonnull align 8 dereferenceable(16) %ref.tmp21, ptr noundef nonnull align 8 dereferenceable(32) @_ZN7rocksdb31kHashIndexPrefixesMetadataBlockB5cxx11E)
  %call22 = call noundef zeroext i1 @_ZN7rocksdbeqERKNS_5SliceES2_(ptr noundef nonnull align 8 dereferenceable(16) %6, ptr noundef nonnull align 8 dereferenceable(16) %ref.tmp21)
  br i1 %call22, label %if.then23, label %if.end24

if.then23:                                        ; preds = %if.end20
  store i8 7, ptr %retval, align 1
  br label %return

if.end24:                                         ; preds = %if.end20
  %7 = load ptr, ptr %meta_block_name.addr, align 8
  call void @_ZN7rocksdb5SliceC2ERKNSt7__cxx1112basic_stringIcSt11char_traitsIcESaIcEEE(ptr noundef nonnull align 8 dereferenceable(16) %ref.tmp25, ptr noundef nonnull align 8 dereferenceable(32) @_ZN7rocksdb15kIndexBlockNameB5cxx11E)
  %call26 = call noundef zeroext i1 @_ZN7rocksdbeqERKNS_5SliceES2_(ptr noundef nonnull align 8 dereferenceable(16) %7, ptr noundef nonnull align 8 dereferenceable(16) %ref.tmp25)
  br i1 %call26, label %if.then27, label %if.end28

if.then27:                                        ; preds = %if.end24
  store i8 9, ptr %retval, align 1
  br label %return

if.end28:                                         ; preds = %if.end24
  %8 = load ptr, ptr %meta_block_name.addr, align 8
  call void @_ZN7rocksdb5SliceC2ERKNSt7__cxx1112basic_stringIcSt11char_traitsIcESaIcEEE(ptr noundef nonnull align 8 dereferenceable(16) %ref.tmp29, ptr noundef nonnull align 8 dereferenceable(32) @_ZN7rocksdb15BlockBasedTable26kObsoleteFilterBlockPrefixB5cxx11E)
  %call30 = call noundef zeroext i1 @_ZNK7rocksdb5Slice11starts_withERKS0_(ptr noundef nonnull align 8 dereferenceable(16) %8, ptr noundef nonnull align 8 dereferenceable(16) %ref.tmp29)
  br i1 %call30, label %if.then31, label %if.end32

if.then31:                                        ; preds = %if.end28
  store i8 10, ptr %retval, align 1
  br label %return

if.end32:                                         ; preds = %if.end28
  store i8 10, ptr %retval, align 1
  br label %return

return:                                           ; preds = %if.end32, %if.then31, %if.then27, %if.then23, %if.then19, %if.then15, %if.then11, %if.then7, %if.then3, %if.then
  %9 = load i8, ptr %retval, align 1
  ret i8 %9
}