; Function Attrs: mustprogress nounwind uwtable
define noundef zeroext i8 @_ZN7rocksdb15BlockBasedTable30GetBlockTypeForMetaBlockByNameERKNS_5SliceE(ptr nocapture noundef nonnull readonly align 8 dereferenceable(16) %meta_block_name) local_unnamed_addr #0 align 2 {
entry:
  %call.i = tail call noundef ptr @_ZNKSt7__cxx1112basic_stringIcSt11char_traitsIcESaIcEE4dataEv(ptr noundef nonnull align 8 dereferenceable(32) @_ZN7rocksdb15BlockBasedTable22kFullFilterBlockPrefixB5cxx11E) #33
  %call2.i = tail call noundef i64 @_ZNKSt7__cxx1112basic_stringIcSt11char_traitsIcESaIcEE4sizeEv(ptr noundef nonnull align 8 dereferenceable(32) @_ZN7rocksdb15BlockBasedTable22kFullFilterBlockPrefixB5cxx11E) #33
  %size_.i9 = getelementptr inbounds i8, ptr %meta_block_name, i64 8
  %0 = load i64, ptr %size_.i9, align 8
  %cmp.not.i = icmp ult i64 %0, %call2.i
  br i1 %cmp.not.i, label %if.end, label %_ZNK7rocksdb5Slice11starts_withERKS0_.exit

_ZNK7rocksdb5Slice11starts_withERKS0_.exit:       ; preds = %entry
  %1 = load ptr, ptr %meta_block_name, align 8
  %bcmp.i = tail call i32 @bcmp(ptr %1, ptr %call.i, i64 %call2.i)
  %cmp5.i = icmp eq i32 %bcmp.i, 0
  br i1 %cmp5.i, label %return, label %if.end

if.end:                                           ; preds = %entry, %_ZNK7rocksdb5Slice11starts_withERKS0_.exit
  %call.i10 = tail call noundef ptr @_ZNKSt7__cxx1112basic_stringIcSt11char_traitsIcESaIcEE4dataEv(ptr noundef nonnull align 8 dereferenceable(32) @_ZN7rocksdb15BlockBasedTable29kPartitionedFilterBlockPrefixB5cxx11E) #33
  %call2.i12 = tail call noundef i64 @_ZNKSt7__cxx1112basic_stringIcSt11char_traitsIcESaIcEE4sizeEv(ptr noundef nonnull align 8 dereferenceable(32) @_ZN7rocksdb15BlockBasedTable29kPartitionedFilterBlockPrefixB5cxx11E) #33
  %2 = load i64, ptr %size_.i9, align 8
  %cmp.not.i15 = icmp ult i64 %2, %call2.i12
  br i1 %cmp.not.i15, label %if.end4, label %_ZNK7rocksdb5Slice11starts_withERKS0_.exit19

_ZNK7rocksdb5Slice11starts_withERKS0_.exit19:     ; preds = %if.end
  %3 = load ptr, ptr %meta_block_name, align 8
  %bcmp.i17 = tail call i32 @bcmp(ptr %3, ptr %call.i10, i64 %call2.i12)
  %cmp5.i18 = icmp eq i32 %bcmp.i17, 0
  br i1 %cmp5.i18, label %return, label %if.end4

if.end4:                                          ; preds = %if.end, %_ZNK7rocksdb5Slice11starts_withERKS0_.exit19
  %call.i20 = tail call noundef ptr @_ZNKSt7__cxx1112basic_stringIcSt11char_traitsIcESaIcEE4dataEv(ptr noundef nonnull align 8 dereferenceable(32) @_ZN7rocksdb20kPropertiesBlockNameB5cxx11E) #33
  %call2.i22 = tail call noundef i64 @_ZNKSt7__cxx1112basic_stringIcSt11char_traitsIcESaIcEE4sizeEv(ptr noundef nonnull align 8 dereferenceable(32) @_ZN7rocksdb20kPropertiesBlockNameB5cxx11E) #33
  %4 = load i64, ptr %size_.i9, align 8
  %cmp.i = icmp eq i64 %4, %call2.i22
  br i1 %cmp.i, label %_ZN7rocksdbeqERKNS_5SliceES2_.exit, label %if.end8

_ZN7rocksdbeqERKNS_5SliceES2_.exit:               ; preds = %if.end4
  %5 = load ptr, ptr %meta_block_name, align 8
  %bcmp.i24 = tail call i32 @bcmp(ptr %5, ptr %call.i20, i64 %call2.i22)
  %cmp6.i = icmp eq i32 %bcmp.i24, 0
  br i1 %cmp6.i, label %return, label %if.end8

if.end8:                                          ; preds = %if.end4, %_ZN7rocksdbeqERKNS_5SliceES2_.exit
  %call.i25 = tail call noundef ptr @_ZNKSt7__cxx1112basic_stringIcSt11char_traitsIcESaIcEE4dataEv(ptr noundef nonnull align 8 dereferenceable(32) @_ZN7rocksdb25kCompressionDictBlockNameB5cxx11E) #33
  %call2.i27 = tail call noundef i64 @_ZNKSt7__cxx1112basic_stringIcSt11char_traitsIcESaIcEE4sizeEv(ptr noundef nonnull align 8 dereferenceable(32) @_ZN7rocksdb25kCompressionDictBlockNameB5cxx11E) #33
  %6 = load i64, ptr %size_.i9, align 8
  %cmp.i30 = icmp eq i64 %6, %call2.i27
  br i1 %cmp.i30, label %_ZN7rocksdbeqERKNS_5SliceES2_.exit34, label %if.end12

_ZN7rocksdbeqERKNS_5SliceES2_.exit34:             ; preds = %if.end8
  %7 = load ptr, ptr %meta_block_name, align 8
  %bcmp.i32 = tail call i32 @bcmp(ptr %7, ptr %call.i25, i64 %call2.i27)
  %cmp6.i33 = icmp eq i32 %bcmp.i32, 0
  br i1 %cmp6.i33, label %return, label %if.end12

if.end12:                                         ; preds = %if.end8, %_ZN7rocksdbeqERKNS_5SliceES2_.exit34
  %call.i35 = tail call noundef ptr @_ZNKSt7__cxx1112basic_stringIcSt11char_traitsIcESaIcEE4dataEv(ptr noundef nonnull align 8 dereferenceable(32) @_ZN7rocksdb18kRangeDelBlockNameB5cxx11E) #33
  %call2.i37 = tail call noundef i64 @_ZNKSt7__cxx1112basic_stringIcSt11char_traitsIcESaIcEE4sizeEv(ptr noundef nonnull align 8 dereferenceable(32) @_ZN7rocksdb18kRangeDelBlockNameB5cxx11E) #33
  %8 = load i64, ptr %size_.i9, align 8
  %cmp.i40 = icmp eq i64 %8, %call2.i37
  br i1 %cmp.i40, label %_ZN7rocksdbeqERKNS_5SliceES2_.exit44, label %if.end16

_ZN7rocksdbeqERKNS_5SliceES2_.exit44:             ; preds = %if.end12
  %9 = load ptr, ptr %meta_block_name, align 8
  %bcmp.i42 = tail call i32 @bcmp(ptr %9, ptr %call.i35, i64 %call2.i37)
  %cmp6.i43 = icmp eq i32 %bcmp.i42, 0
  br i1 %cmp6.i43, label %return, label %if.end16

if.end16:                                         ; preds = %if.end12, %_ZN7rocksdbeqERKNS_5SliceES2_.exit44
  %call.i45 = tail call noundef ptr @_ZNKSt7__cxx1112basic_stringIcSt11char_traitsIcESaIcEE4dataEv(ptr noundef nonnull align 8 dereferenceable(32) @_ZN7rocksdb23kHashIndexPrefixesBlockB5cxx11E) #33
  %call2.i47 = tail call noundef i64 @_ZNKSt7__cxx1112basic_stringIcSt11char_traitsIcESaIcEE4sizeEv(ptr noundef nonnull align 8 dereferenceable(32) @_ZN7rocksdb23kHashIndexPrefixesBlockB5cxx11E) #33
  %10 = load i64, ptr %size_.i9, align 8
  %cmp.i50 = icmp eq i64 %10, %call2.i47
  br i1 %cmp.i50, label %_ZN7rocksdbeqERKNS_5SliceES2_.exit54, label %if.end20

_ZN7rocksdbeqERKNS_5SliceES2_.exit54:             ; preds = %if.end16
  %11 = load ptr, ptr %meta_block_name, align 8
  %bcmp.i52 = tail call i32 @bcmp(ptr %11, ptr %call.i45, i64 %call2.i47)
  %cmp6.i53 = icmp eq i32 %bcmp.i52, 0
  br i1 %cmp6.i53, label %return, label %if.end20

if.end20:                                         ; preds = %if.end16, %_ZN7rocksdbeqERKNS_5SliceES2_.exit54
  %call.i55 = tail call noundef ptr @_ZNKSt7__cxx1112basic_stringIcSt11char_traitsIcESaIcEE4dataEv(ptr noundef nonnull align 8 dereferenceable(32) @_ZN7rocksdb31kHashIndexPrefixesMetadataBlockB5cxx11E) #33
  %call2.i57 = tail call noundef i64 @_ZNKSt7__cxx1112basic_stringIcSt11char_traitsIcESaIcEE4sizeEv(ptr noundef nonnull align 8 dereferenceable(32) @_ZN7rocksdb31kHashIndexPrefixesMetadataBlockB5cxx11E) #33
  %12 = load i64, ptr %size_.i9, align 8
  %cmp.i60 = icmp eq i64 %12, %call2.i57
  br i1 %cmp.i60, label %_ZN7rocksdbeqERKNS_5SliceES2_.exit64, label %if.end24

_ZN7rocksdbeqERKNS_5SliceES2_.exit64:             ; preds = %if.end20
  %13 = load ptr, ptr %meta_block_name, align 8
  %bcmp.i62 = tail call i32 @bcmp(ptr %13, ptr %call.i55, i64 %call2.i57)
  %cmp6.i63 = icmp eq i32 %bcmp.i62, 0
  br i1 %cmp6.i63, label %return, label %if.end24

if.end24:                                         ; preds = %if.end20, %_ZN7rocksdbeqERKNS_5SliceES2_.exit64
  %call.i65 = tail call noundef ptr @_ZNKSt7__cxx1112basic_stringIcSt11char_traitsIcESaIcEE4dataEv(ptr noundef nonnull align 8 dereferenceable(32) @_ZN7rocksdb15kIndexBlockNameB5cxx11E) #33
  %call2.i67 = tail call noundef i64 @_ZNKSt7__cxx1112basic_stringIcSt11char_traitsIcESaIcEE4sizeEv(ptr noundef nonnull align 8 dereferenceable(32) @_ZN7rocksdb15kIndexBlockNameB5cxx11E) #33
  %14 = load i64, ptr %size_.i9, align 8
  %cmp.i70 = icmp eq i64 %14, %call2.i67
  br i1 %cmp.i70, label %_ZN7rocksdbeqERKNS_5SliceES2_.exit74, label %if.end28

_ZN7rocksdbeqERKNS_5SliceES2_.exit74:             ; preds = %if.end24
  %15 = load ptr, ptr %meta_block_name, align 8
  %bcmp.i72 = tail call i32 @bcmp(ptr %15, ptr %call.i65, i64 %call2.i67)
  %cmp6.i73 = icmp eq i32 %bcmp.i72, 0
  br i1 %cmp6.i73, label %return, label %if.end28

if.end28:                                         ; preds = %if.end24, %_ZN7rocksdbeqERKNS_5SliceES2_.exit74
  %call.i75 = tail call noundef ptr @_ZNKSt7__cxx1112basic_stringIcSt11char_traitsIcESaIcEE4dataEv(ptr noundef nonnull align 8 dereferenceable(32) @_ZN7rocksdb15BlockBasedTable26kObsoleteFilterBlockPrefixB5cxx11E) #33
  %call2.i77 = tail call noundef i64 @_ZNKSt7__cxx1112basic_stringIcSt11char_traitsIcESaIcEE4sizeEv(ptr noundef nonnull align 8 dereferenceable(32) @_ZN7rocksdb15BlockBasedTable26kObsoleteFilterBlockPrefixB5cxx11E) #33
  br label %return

return:                                           ; preds = %if.end28, %_ZN7rocksdbeqERKNS_5SliceES2_.exit74, %_ZN7rocksdbeqERKNS_5SliceES2_.exit64, %_ZN7rocksdbeqERKNS_5SliceES2_.exit54, %_ZN7rocksdbeqERKNS_5SliceES2_.exit44, %_ZN7rocksdbeqERKNS_5SliceES2_.exit34, %_ZN7rocksdbeqERKNS_5SliceES2_.exit, %_ZNK7rocksdb5Slice11starts_withERKS0_.exit19, %_ZNK7rocksdb5Slice11starts_withERKS0_.exit
  %retval.0 = phi i8 [ 1, %_ZNK7rocksdb5Slice11starts_withERKS0_.exit ], [ 2, %_ZNK7rocksdb5Slice11starts_withERKS0_.exit19 ], [ 3, %_ZN7rocksdbeqERKNS_5SliceES2_.exit ], [ 4, %_ZN7rocksdbeqERKNS_5SliceES2_.exit34 ], [ 5, %_ZN7rocksdbeqERKNS_5SliceES2_.exit44 ], [ 6, %_ZN7rocksdbeqERKNS_5SliceES2_.exit54 ], [ 7, %_ZN7rocksdbeqERKNS_5SliceES2_.exit64 ], [ 9, %_ZN7rocksdbeqERKNS_5SliceES2_.exit74 ], [ 10, %if.end28 ]
  ret i8 %retval.0
}